target datalayout = "e-m:e-p270:32:32-p271:32:32-p272:64:64-i64:64-i128:128-f80:128-n8:16:32:64-S128"
target triple = "x86_64-pc-linux-gnu"

%union.TValue = type { i64 }
%struct.FuncState = type { ptr, ptr, ptr, ptr, ptr, i32, i32, i32, i32, i32, i32, i32, i32, ptr, i32, i32, i8, i8, i8, i8, [200 x i16], [60 x i16], [60 x i16] }
%struct.ExpDesc = type { %union.anon.2, i32, i32, i32 }
%union.anon.2 = type { %union.TValue }
%struct.anon.3 = type { i32, i32 }

; Function Attrs: nounwind uwtable
define internal void @bcreg_bump(ptr noundef %0, i32 noundef %1) #0 {
  %3 = alloca ptr, align 8
  %4 = alloca i32, align 4
  %5 = alloca i32, align 4
  store ptr %0, ptr %3, align 8, !tbaa !62
  store i32 %1, ptr %4, align 4, !tbaa !79
  call void @llvm.lifetime.start.p0(i64 4, ptr %5) #11
  %6 = load ptr, ptr %3, align 8, !tbaa !62
  %7 = getelementptr inbounds nuw %struct.FuncState, ptr %6, i32 0, i32 8
  %8 = load i32, ptr %7, align 4, !tbaa !71
  %9 = load i32, ptr %4, align 4, !tbaa !79
  %10 = add i32 %8, %9
  store i32 %10, ptr %5, align 4, !tbaa !79
  %11 = load i32, ptr %5, align 4, !tbaa !79
  %12 = load ptr, ptr %3, align 8, !tbaa !62
  %13 = getelementptr inbounds nuw %struct.FuncState, ptr %12, i32 0, i32 18
  %14 = load i8, ptr %13, align 2, !tbaa !77
  %15 = zext i8 %14 to i32
  %16 = icmp ugt i32 %11, %15
  br i1 %16, label %17, label %29

17:                                               ; preds = %2
  %18 = load i32, ptr %5, align 4, !tbaa !79
  %19 = icmp uge i32 %18, 250
  br i1 %19, label %20, label %24

20:                                               ; preds = %17
  %21 = load ptr, ptr %3, align 8, !tbaa !62
  %22 = getelementptr inbounds nuw %struct.FuncState, ptr %21, i32 0, i32 1
  %23 = load ptr, ptr %22, align 8, !tbaa !64
  call void @err_syntax(ptr noundef %23, i32 noundef 2426) #13
  unreachable

24:                                               ; preds = %17
  %25 = load i32, ptr %5, align 4, !tbaa !79
  %26 = trunc i32 %25 to i8
  %27 = load ptr, ptr %3, align 8, !tbaa !62
  %28 = getelementptr inbounds nuw %struct.FuncState, ptr %27, i32 0, i32 18
  store i8 %26, ptr %28, align 2, !tbaa !77
  br label %29

29:                                               ; preds = %24, %2
  call void @llvm.lifetime.end.p0(i64 4, ptr %5) #11
  ret void
}

; Function Attrs: nounwind uwtable
define internal void @bcreg_free(ptr noundef %0, i32 noundef %1) #0 {
  %3 = alloca ptr, align 8
  %4 = alloca i32, align 4
  store ptr %0, ptr %3, align 8, !tbaa !62
  store i32 %1, ptr %4, align 4, !tbaa !79
  %5 = load i32, ptr %4, align 4, !tbaa !79
  %6 = load ptr, ptr %3, align 8, !tbaa !62
  %7 = getelementptr inbounds nuw %struct.FuncState, ptr %6, i32 0, i32 9
  %8 = load i32, ptr %7, align 8, !tbaa !74
  %9 = icmp uge i32 %5, %8
  br i1 %9, label %10, label %15

10:                                               ; preds = %2
  %11 = load ptr, ptr %3, align 8, !tbaa !62
  %12 = getelementptr inbounds nuw %struct.FuncState, ptr %11, i32 0, i32 8
  %13 = load i32, ptr %12, align 4, !tbaa !71
  %14 = add i32 %13, -1
  store i32 %14, ptr %12, align 4, !tbaa !71
  br label %15

15:                                               ; preds = %10, %2
  ret void
}

; Function Attrs: nounwind uwtable
define internal void @bcreg_reserve(ptr noundef %0, i32 noundef %1) #0 {
  %3 = alloca ptr, align 8
  %4 = alloca i32, align 4
  store ptr %0, ptr %3, align 8, !tbaa !62
  store i32 %1, ptr %4, align 4, !tbaa !79
  %5 = load ptr, ptr %3, align 8, !tbaa !62
  %6 = load i32, ptr %4, align 4, !tbaa !79
  call void @bcreg_bump(ptr noundef %5, i32 noundef %6)
  %7 = load i32, ptr %4, align 4, !tbaa !79
  %8 = load ptr, ptr %3, align 8, !tbaa !62
  %9 = getelementptr inbounds nuw %struct.FuncState, ptr %8, i32 0, i32 8
  %10 = load i32, ptr %9, align 4, !tbaa !71
  %11 = add i32 %10, %7
  store i32 %11, ptr %9, align 4, !tbaa !71
  ret void
}

; Function Attrs: nounwind uwtable
define internal void @expr_free(ptr noundef %0, ptr noundef %1) #0 {
  %3 = alloca ptr, align 8
  %4 = alloca ptr, align 8
  store ptr %0, ptr %3, align 8, !tbaa !62
  store ptr %1, ptr %4, align 8, !tbaa !127
  %5 = load ptr, ptr %4, align 8, !tbaa !127
  %6 = getelementptr inbounds nuw %struct.ExpDesc, ptr %5, i32 0, i32 1
  %7 = load i32, ptr %6, align 8, !tbaa !117
  %8 = icmp eq i32 %7, 12
  br i1 %8, label %9, label %15

9:                                                ; preds = %2
  %10 = load ptr, ptr %3, align 8, !tbaa !62
  %11 = load ptr, ptr %4, align 8, !tbaa !127
  %12 = getelementptr inbounds nuw %struct.ExpDesc, ptr %11, i32 0, i32 0
  %13 = getelementptr inbounds nuw %struct.anon.3, ptr %12, i32 0, i32 0
  %14 = load i32, ptr %13, align 8, !tbaa !32
  call void @bcreg_free(ptr noundef %10, i32 noundef %14)
  br label %15

15:                                               ; preds = %9, %2
  ret void
}

; Function Attrs: nounwind uwtable
define internal void @expr_tonextreg(ptr noundef %0, ptr noundef %1) #0 {
  %3 = alloca ptr, align 8
  %4 = alloca ptr, align 8
  store ptr %0, ptr %3, align 8, !tbaa !62
  store ptr %1, ptr %4, align 8, !tbaa !127
  %5 = load ptr, ptr %3, align 8, !tbaa !62
  %6 = load ptr, ptr %4, align 8, !tbaa !127
  call void @expr_discharge(ptr noundef %5, ptr noundef %6)
  %7 = load ptr, ptr %3, align 8, !tbaa !62
  %8 = load ptr, ptr %4, align 8, !tbaa !127
  call void @expr_free(ptr noundef %7, ptr noundef %8)
  %9 = load ptr, ptr %3, align 8, !tbaa !62
  call void @bcreg_reserve(ptr noundef %9, i32 noundef 1)
  %10 = load ptr, ptr %3, align 8, !tbaa !62
  %11 = load ptr, ptr %4, align 8, !tbaa !127
  %12 = load ptr, ptr %3, align 8, !tbaa !62
  %13 = getelementptr inbounds nuw %struct.FuncState, ptr %12, i32 0, i32 8
  %14 = load i32, ptr %13, align 4, !tbaa !71
  %15 = sub i32 %14, 1
  call void @expr_toreg(ptr noundef %10, ptr noundef %11, i32 noundef %15)
  ret void
}

; Function Attrs: nounwind uwtable
define internal i32 @expr_toanyreg(ptr noundef %0, ptr noundef %1) #0 {
  %3 = alloca i32, align 4
  %4 = alloca ptr, align 8
  %5 = alloca ptr, align 8
  store ptr %0, ptr %4, align 8, !tbaa !62
  store ptr %1, ptr %5, align 8, !tbaa !127
  %6 = load ptr, ptr %4, align 8, !tbaa !62
  %7 = load ptr, ptr %5, align 8, !tbaa !127
  call void @expr_discharge(ptr noundef %6, ptr noundef %7)
  %8 = load ptr, ptr %5, align 8, !tbaa !127
  %9 = getelementptr inbounds nuw %struct.ExpDesc, ptr %8, i32 0, i32 1
  %10 = load i32, ptr %9, align 8, !tbaa !117
  %11 = icmp eq i32 %10, 12
  br i1 %11, label %12, label %46

12:                                               ; preds = %2
  %13 = load ptr, ptr %5, align 8, !tbaa !127
  %14 = getelementptr inbounds nuw %struct.ExpDesc, ptr %13, i32 0, i32 2
  %15 = load i32, ptr %14, align 4, !tbaa !129
  %16 = load ptr, ptr %5, align 8, !tbaa !127
  %17 = getelementptr inbounds nuw %struct.ExpDesc, ptr %16, i32 0, i32 3
  %18 = load i32, ptr %17, align 8, !tbaa !126
  %19 = icmp ne i32 %15, %18
  br i1 %19, label %25, label %20

20:                                               ; preds = %12
  %21 = load ptr, ptr %5, align 8, !tbaa !127
  %22 = getelementptr inbounds nuw %struct.ExpDesc, ptr %21, i32 0, i32 0
  %23 = getelementptr inbounds nuw %struct.anon.3, ptr %22, i32 0, i32 0
  %24 = load i32, ptr %23, align 8, !tbaa !32
  store i32 %24, ptr %3, align 4
  br label %53

25:                                               ; preds = %12
  %26 = load ptr, ptr %5, align 8, !tbaa !127
  %27 = getelementptr inbounds nuw %struct.ExpDesc, ptr %26, i32 0, i32 0
  %28 = getelementptr inbounds nuw %struct.anon.3, ptr %27, i32 0, i32 0
  %29 = load i32, ptr %28, align 8, !tbaa !32
  %30 = load ptr, ptr %4, align 8, !tbaa !62
  %31 = getelementptr inbounds nuw %struct.FuncState, ptr %30, i32 0, i32 9
  %32 = load i32, ptr %31, align 8, !tbaa !74
  %33 = icmp uge i32 %29, %32
  br i1 %33, label %34, label %45

34:                                               ; preds = %25
  %35 = load ptr, ptr %4, align 8, !tbaa !62
  %36 = load ptr, ptr %5, align 8, !tbaa !127
  %37 = load ptr, ptr %5, align 8, !tbaa !127
  %38 = getelementptr inbounds nuw %struct.ExpDesc, ptr %37, i32 0, i32 0
  %39 = getelementptr inbounds nuw %struct.anon.3, ptr %38, i32 0, i32 0
  %40 = load i32, ptr %39, align 8, !tbaa !32
  call void @expr_toreg(ptr noundef %35, ptr noundef %36, i32 noundef %40)
  %41 = load ptr, ptr %5, align 8, !tbaa !127
  %42 = getelementptr inbounds nuw %struct.ExpDesc, ptr %41, i32 0, i32 0
  %43 = getelementptr inbounds nuw %struct.anon.3, ptr %42, i32 0, i32 0
  %44 = load i32, ptr %43, align 8, !tbaa !32
  store i32 %44, ptr %3, align 4
  br label %53

45:                                               ; preds = %25
  br label %46

46:                                               ; preds = %45, %2
  %47 = load ptr, ptr %4, align 8, !tbaa !62
  %48 = load ptr, ptr %5, align 8, !tbaa !127
  call void @expr_tonextreg(ptr noundef %47, ptr noundef %48)
  %49 = load ptr, ptr %5, align 8, !tbaa !127
  %50 = getelementptr inbounds nuw %struct.ExpDesc, ptr %49, i32 0, i32 0
  %51 = getelementptr inbounds nuw %struct.anon.3, ptr %50, i32 0, i32 0
  %52 = load i32, ptr %51, align 8, !tbaa !32
  store i32 %52, ptr %3, align 4
  br label %53

53:                                               ; preds = %46, %34, %20
  %54 = load i32, ptr %3, align 4
  ret i32 %54
}