; Function Attrs: nounwind uwtable
define internal fastcc i32 @expr_toanyreg(ptr noundef captures(none) %0, ptr noundef nonnull %1) unnamed_addr #0 {
  tail call fastcc void @expr_discharge(ptr noundef %0, ptr noundef %1)
  %3 = getelementptr inbounds nuw i8, ptr %1, i64 8
  %4 = load i32, ptr %3, align 8, !tbaa !79
  %5 = icmp eq i32 %4, 12
  br i1 %5, label %6, label %15

6:                                                ; preds = %2
  %7 = getelementptr inbounds nuw i8, ptr %1, i64 12
  %8 = load i32, ptr %7, align 4, !tbaa !152
  %9 = getelementptr inbounds nuw i8, ptr %1, i64 16
  %10 = load i32, ptr %9, align 8, !tbaa !81
  %.not = icmp eq i32 %8, %10
  br i1 %.not, label %40, label %11

11:                                               ; preds = %6
  %12 = load i32, ptr %1, align 8, !tbaa !25
  %13 = getelementptr inbounds nuw i8, ptr %0, i64 56
  %14 = load i32, ptr %13, align 8, !tbaa !59
  %.not16 = icmp ult i32 %12, %14
  br i1 %.not16, label %15, label %.sink.split

15:                                               ; preds = %11, %2
  tail call fastcc void @expr_discharge(ptr noundef %0, ptr noundef nonnull %1)
  %16 = load i32, ptr %3, align 8, !tbaa !79
  %17 = icmp eq i32 %16, 12
  br i1 %17, label %18, label %expr_free.exit.i

18:                                               ; preds = %15
  %19 = load i32, ptr %1, align 8, !tbaa !25
  %20 = getelementptr inbounds nuw i8, ptr %0, i64 56
  %21 = load i32, ptr %20, align 8, !tbaa !59
  %.not.i.i.i = icmp ult i32 %19, %21
  br i1 %.not.i.i.i, label %expr_free.exit.i, label %22

22:                                               ; preds = %18
  %23 = getelementptr inbounds nuw i8, ptr %0, i64 52
  %24 = load i32, ptr %23, align 4, !tbaa !83
  %25 = add i32 %24, -1
  store i32 %25, ptr %23, align 4, !tbaa !83
  br label %expr_free.exit.i

expr_free.exit.i:                                 ; preds = %22, %18, %15
  %26 = getelementptr inbounds nuw i8, ptr %0, i64 52
  %27 = load i32, ptr %26, align 4, !tbaa !83
  %28 = add i32 %27, 1
  %29 = getelementptr inbounds nuw i8, ptr %0, i64 90
  %30 = load i8, ptr %29, align 2, !tbaa !57
  %31 = zext i8 %30 to i32
  %32 = icmp ugt i32 %28, %31
  br i1 %32, label %33, label %expr_tonextreg.exit

33:                                               ; preds = %expr_free.exit.i
  %34 = icmp ugt i32 %28, 249
  br i1 %34, label %35, label %38

35:                                               ; preds = %33
  %36 = getelementptr inbounds nuw i8, ptr %0, i64 8
  %37 = load ptr, ptr %36, align 8, !tbaa !47
  tail call fastcc void @err_syntax(ptr noundef %37, i32 noundef 2426) #13
  unreachable

38:                                               ; preds = %33
  %39 = trunc nuw i32 %28 to i8
  store i8 %39, ptr %29, align 2, !tbaa !57
  br label %expr_tonextreg.exit

expr_tonextreg.exit:                              ; preds = %expr_free.exit.i, %38
  store i32 %28, ptr %26, align 4, !tbaa !83
  br label %.sink.split

.sink.split:                                      ; preds = %11, %expr_tonextreg.exit
  %.sink = phi i32 [ %27, %expr_tonextreg.exit ], [ %12, %11 ]
  tail call fastcc void @expr_toreg(ptr noundef nonnull %0, ptr noundef %1, i32 noundef %.sink)
  br label %40

40:                                               ; preds = %.sink.split, %6
  %.0 = load i32, ptr %1, align 8, !tbaa !25
  ret i32 %.0
}